(i__main__
TreeNode
p0
(dp1
S'nodes'
p2
(lp3
(i__main__
TreeNode
p4
(dp5
g2
(lp6
(i__main__
TreeNode
p7
(dp8
g2
(lp9
I-1
aI-1
aI-1
aI-1
aI-1
asS'data'
p10
S'F'
p11
sS'value'
p12
I1
sba(i__main__
TreeNode
p13
(dp14
g2
(lp15
I-1
aI-1
aI-1
aI-1
aI-1
asg10
g11
sg12
I2
sba(i__main__
TreeNode
p16
(dp17
g2
(lp18
(i__main__
TreeNode
p19
(dp20
g2
(lp21
I-1
aI-1
aI-1
aI-1
aI-1
asg10
g11
sg12
I1
sba(i__main__
TreeNode
p22
(dp23
g2
(lp24
I-1
aI-1
aI-1
aI-1
aI-1
asg10
g11
sg12
I2
sba(i__main__
TreeNode
p25
(dp26
g2
(lp27
I-1
aI-1
aI-1
aI-1
aI-1
asg10
g11
sg12
I3
sba(i__main__
TreeNode
p28
(dp29
g2
(lp30
I-1
aI-1
aI-1
aI-1
aI-1
asg10
g11
sg12
I4
sba(i__main__
TreeNode
p31
(dp32
g2
(lp33
I-1
aI-1
aI-1
aI-1
aI-1
asg10
g11
sg12
I5
sbasg10
I272
sg12
I3
sba(i__main__
TreeNode
p34
(dp35
g2
(lp36
I-1
aI-1
aI-1
aI-1
aI-1
asg10
g11
sg12
I4
sba(i__main__
TreeNode
p37
(dp38
g2
(lp39
I-1
aI-1
aI-1
aI-1
aI-1
asg10
g11
sg12
I5
sbasg10
I271
sg12
I1
sba(i__main__
TreeNode
p40
(dp41
g2
(lp42
(i__main__
TreeNode
p43
(dp44
g2
(lp45
(i__main__
TreeNode
p46
(dp47
g2
(lp48
(i__main__
TreeNode
p49
(dp50
g2
(lp51
I-1
aI-1
aI-1
aI-1
aI-1
asg10
g11
sg12
I1
sba(i__main__
TreeNode
p52
(dp53
g2
(lp54
(i__main__
TreeNode
p55
(dp56
g2
(lp57
(i__main__
TreeNode
p58
(dp59
g2
(lp60
(i__main__
TreeNode
p61
(dp62
g2
(lp63
(i__main__
TreeNode
p64
(dp65
g2
(lp66
(i__main__
TreeNode
p67
(dp68
g2
(lp69
I-1
aI-1
aI-1
aI-1
aI-1
asg10
g11
sg12
I1
sba(i__main__
TreeNode
p70
(dp71
g2
(lp72
(i__main__
TreeNode
p73
(dp74
g2
(lp75
I-1
aI-1
aI-1
aI-1
aI-1
asg10
g11
sg12
I1
sba(i__main__
TreeNode
p76
(dp77
g2
(lp78
I-1
aI-1
aI-1
aI-1
aI-1
asg10
g11
sg12
I2
sba(i__main__
TreeNode
p79
(dp80
g2
(lp81
I-1
aI-1
aI-1
aI-1
aI-1
asg10
g11
sg12
I3
sba(i__main__
TreeNode
p82
(dp83
g2
(lp84
(i__main__
TreeNode
p85
(dp86
g2
(lp87
I-1
aI-1
aI-1
aI-1
aI-1
asg10
S'T'
p88
sg12
I1
sba(i__main__
TreeNode
p89
(dp90
g2
(lp91
I-1
aI-1
aI-1
aI-1
aI-1
asg10
g11
sg12
I2
sba(i__main__
TreeNode
p92
(dp93
g2
(lp94
I-1
aI-1
aI-1
aI-1
aI-1
asg10
g88
sg12
I3
sbaI-1
a(i__main__
TreeNode
p95
(dp96
g2
(lp97
I-1
aI-1
aI-1
aI-1
aI-1
asg10
g88
sg12
I5
sbasg10
I267
sg12
I4
sba(i__main__
TreeNode
p98
(dp99
g2
(lp100
I-1
aI-1
aI-1
aI-1
aI-1
asg10
g11
sg12
I5
sbasg10
I122
sg12
I2
sba(i__main__
TreeNode
p101
(dp102
g2
(lp103
I-1
aI-1
aI-1
aI-1
aI-1
asg10
g11
sg12
I3
sba(i__main__
TreeNode
p104
(dp105
g2
(lp106
I-1
aI-1
aI-1
aI-1
aI-1
asg10
g11
sg12
I4
sba(i__main__
TreeNode
p107
(dp108
g2
(lp109
I-1
aI-1
aI-1
aI-1
aI-1
asg10
g11
sg12
I5
sbasg10
I82
sg12
I1
sba(i__main__
TreeNode
p110
(dp111
g2
(lp112
I-1
aI-1
aI-1
aI-1
aI-1
asg10
g11
sg12
I2
sba(i__main__
TreeNode
p113
(dp114
g2
(lp115
I-1
aI-1
aI-1
aI-1
aI-1
asg10
g11
sg12
I3
sba(i__main__
TreeNode
p116
(dp117
g2
(lp118
I-1
aI-1
aI-1
aI-1
aI-1
asg10
g11
sg12
I4
sba(i__main__
TreeNode
p119
(dp120
g2
(lp121
I-1
aI-1
aI-1
aI-1
aI-1
asg10
g11
sg12
I5
sbasg10
I92
sg12
I1
sba(i__main__
TreeNode
p122
(dp123
g2
(lp124
(i__main__
TreeNode
p125
(dp126
g2
(lp127
(i__main__
TreeNode
p128
(dp129
g2
(lp130
I-1
aI-1
aI-1
aI-1
aI-1
asg10
g11
sg12
I1
sba(i__main__
TreeNode
p131
(dp132
g2
(lp133
I-1
aI-1
aI-1
aI-1
aI-1
asg10
g11
sg12
I2
sba(i__main__
TreeNode
p134
(dp135
g2
(lp136
I-1
aI-1
aI-1
aI-1
aI-1
asg10
g11
sg12
I3
sba(i__main__
TreeNode
p137
(dp138
g2
(lp139
I-1
aI-1
aI-1
aI-1
aI-1
asg10
g11
sg12
I4
sba(i__main__
TreeNode
p140
(dp141
g2
(lp142
I-1
aI-1
aI-1
aI-1
aI-1
asg10
g11
sg12
I5
sbasg10
I262
sg12
I1
sba(i__main__
TreeNode
p143
(dp144
g2
(lp145
I-1
aI-1
aI-1
aI-1
aI-1
asg10
g88
sg12
I2
sba(i__main__
TreeNode
p146
(dp147
g2
(lp148
I-1
aI-1
aI-1
aI-1
aI-1
asg10
g11
sg12
I3
sba(i__main__
TreeNode
p149
(dp150
g2
(lp151
I-1
aI-1
aI-1
aI-1
aI-1
asg10
g11
sg12
I4
sba(i__main__
TreeNode
p152
(dp153
g2
(lp154
I-1
aI-1
aI-1
aI-1
aI-1
asg10
g88
sg12
I5
sbasg10
I223
sg12
I2
sba(i__main__
TreeNode
p155
(dp156
g2
(lp157
I-1
aI-1
aI-1
aI-1
aI-1
asg10
g11
sg12
I3
sba(i__main__
TreeNode
p158
(dp159
g2
(lp160
I-1
aI-1
aI-1
aI-1
aI-1
asg10
g11
sg12
I4
sba(i__main__
TreeNode
p161
(dp162
g2
(lp163
I-1
aI-1
aI-1
aI-1
aI-1
asg10
g11
sg12
I5
sbasg10
I129
sg12
I1
sba(i__main__
TreeNode
p164
(dp165
g2
(lp166
I-1
aI-1
aI-1
aI-1
aI-1
asg10
g88
sg12
I2
sba(i__main__
TreeNode
p167
(dp168
g2
(lp169
I-1
aI-1
aI-1
aI-1
aI-1
asg10
g11
sg12
I3
sba(i__main__
TreeNode
p170
(dp171
g2
(lp172
I-1
aI-1
aI-1
aI-1
aI-1
asg10
g11
sg12
I4
sba(i__main__
TreeNode
p173
(dp174
g2
(lp175
I-1
aI-1
aI-1
aI-1
aI-1
asg10
g11
sg12
I5
sbasg10
I176
sg12
I1
sba(i__main__
TreeNode
p176
(dp177
g2
(lp178
I-1
aI-1
aI-1
aI-1
aI-1
asg10
g11
sg12
I2
sba(i__main__
TreeNode
p179
(dp180
g2
(lp181
I-1
aI-1
aI-1
aI-1
aI-1
asg10
g11
sg12
I3
sba(i__main__
TreeNode
p182
(dp183
g2
(lp184
I-1
aI-1
aI-1
aI-1
aI-1
asg10
g11
sg12
I4
sba(i__main__
TreeNode
p185
(dp186
g2
(lp187
I-1
aI-1
aI-1
aI-1
aI-1
asg10
g11
sg12
I5
sbasg10
I186
sg12
I2
sbaI-1
a(i__main__
TreeNode
p188
(dp189
g2
(lp190
I-1
aI-1
aI-1
aI-1
aI-1
asg10
g88
sg12
I4
sba(i__main__
TreeNode
p191
(dp192
g2
(lp193
I-1
aI-1
aI-1
aI-1
aI-1
asg10
g11
sg12
I5
sbasg10
I266
sg12
I1
sba(i__main__
TreeNode
p194
(dp195
g2
(lp196
I-1
aI-1
aI-1
aI-1
aI-1
asg10
g11
sg12
I2
sba(i__main__
TreeNode
p197
(dp198
g2
(lp199
I-1
aI-1
aI-1
aI-1
aI-1
asg10
g88
sg12
I3
sba(i__main__
TreeNode
p200
(dp201
g2
(lp202
(i__main__
TreeNode
p203
(dp204
g2
(lp205
(i__main__
TreeNode
p206
(dp207
g2
(lp208
I-1
aI-1
aI-1
aI-1
aI-1
asg10
g11
sg12
I1
sba(i__main__
TreeNode
p209
(dp210
g2
(lp211
I-1
aI-1
aI-1
aI-1
aI-1
asg10
g88
sg12
I2
sbaI-1
aI-1
aI-1
asg10
I14
sg12
I1
sba(i__main__
TreeNode
p212
(dp213
g2
(lp214
(i__main__
TreeNode
p215
(dp216
g2
(lp217
I-1
aI-1
aI-1
aI-1
aI-1
asg10
g11
sg12
I1
sba(i__main__
TreeNode
p218
(dp219
g2
(lp220
I-1
aI-1
aI-1
aI-1
aI-1
asg10
g88
sg12
I2
sba(i__main__
TreeNode
p221
(dp222
g2
(lp223
I-1
aI-1
aI-1
aI-1
aI-1
asg10
g11
sg12
I3
sba(i__main__
TreeNode
p224
(dp225
g2
(lp226
I-1
aI-1
aI-1
aI-1
aI-1
asg10
g88
sg12
I4
sba(i__main__
TreeNode
p227
(dp228
g2
(lp229
I-1
aI-1
aI-1
aI-1
aI-1
asg10
g11
sg12
I5
sbasg10
I263
sg12
I2
sba(i__main__
TreeNode
p230
(dp231
g2
(lp232
I-1
aI-1
aI-1
aI-1
aI-1
asg10
g88
sg12
I3
sba(i__main__
TreeNode
p233
(dp234
g2
(lp235
I-1
aI-1
aI-1
aI-1
aI-1
asg10
g88
sg12
I4
sba(i__main__
TreeNode
p236
(dp237
g2
(lp238
I-1
aI-1
aI-1
aI-1
aI-1
asg10
g88
sg12
I5
sbasg10
I186
sg12
I4
sba(i__main__
TreeNode
p239
(dp240
g2
(lp241
I-1
aI-1
aI-1
aI-1
aI-1
asg10
g88
sg12
I5
sbasg10
I80
sg12
I1
sba(i__main__
TreeNode
p242
(dp243
g2
(lp244
I-1
aI-1
aI-1
aI-1
aI-1
asg10
g88
sg12
I2
sba(i__main__
TreeNode
p245
(dp246
g2
(lp247
I-1
aI-1
aI-1
aI-1
aI-1
asg10
g11
sg12
I3
sba(i__main__
TreeNode
p248
(dp249
g2
(lp250
I-1
aI-1
aI-1
aI-1
aI-1
asg10
g11
sg12
I4
sba(i__main__
TreeNode
p251
(dp252
g2
(lp253
(i__main__
TreeNode
p254
(dp255
g2
(lp256
I-1
aI-1
aI-1
aI-1
aI-1
asg10
g11
sg12
I1
sba(i__main__
TreeNode
p257
(dp258
g2
(lp259
I-1
aI-1
aI-1
aI-1
aI-1
asg10
g11
sg12
I2
sba(i__main__
TreeNode
p260
(dp261
g2
(lp262
I-1
aI-1
aI-1
aI-1
aI-1
asg10
g11
sg12
I3
sba(i__main__
TreeNode
p263
(dp264
g2
(lp265
I-1
aI-1
aI-1
aI-1
aI-1
asg10
g11
sg12
I4
sba(i__main__
TreeNode
p266
(dp267
g2
(lp268
I-1
aI-1
aI-1
aI-1
aI-1
asg10
g11
sg12
I5
sbasg10
I7
sg12
I5
sbasg10
I167
sg12
I2
sba(i__main__
TreeNode
p269
(dp270
g2
(lp271
(i__main__
TreeNode
p272
(dp273
g2
(lp274
(i__main__
TreeNode
p275
(dp276
g2
(lp277
(i__main__
TreeNode
p278
(dp279
g2
(lp280
(i__main__
TreeNode
p281
(dp282
g2
(lp283
(i__main__
TreeNode
p284
(dp285
g2
(lp286
I-1
aI-1
aI-1
aI-1
aI-1
asg10
g11
sg12
I1
sba(i__main__
TreeNode
p287
(dp288
g2
(lp289
I-1
aI-1
aI-1
aI-1
aI-1
asg10
g11
sg12
I2
sba(i__main__
TreeNode
p290
(dp291
g2
(lp292
I-1
aI-1
aI-1
aI-1
aI-1
asg10
g11
sg12
I3
sba(i__main__
TreeNode
p293
(dp294
g2
(lp295
I-1
aI-1
aI-1
aI-1
aI-1
asg10
g11
sg12
I4
sba(i__main__
TreeNode
p296
(dp297
g2
(lp298
I-1
aI-1
aI-1
aI-1
aI-1
asg10
g11
sg12
I5
sbasg10
I129
sg12
I1
sba(i__main__
TreeNode
p299
(dp300
g2
(lp301
I-1
aI-1
aI-1
aI-1
aI-1
asg10
g11
sg12
I2
sba(i__main__
TreeNode
p302
(dp303
g2
(lp304
(i__main__
TreeNode
p305
(dp306
g2
(lp307
I-1
aI-1
aI-1
aI-1
aI-1
asg10
g11
sg12
I1
sba(i__main__
TreeNode
p308
(dp309
g2
(lp310
I-1
aI-1
aI-1
aI-1
aI-1
asg10
g11
sg12
I2
sba(i__main__
TreeNode
p311
(dp312
g2
(lp313
I-1
aI-1
aI-1
aI-1
aI-1
asg10
g11
sg12
I3
sba(i__main__
TreeNode
p314
(dp315
g2
(lp316
I-1
aI-1
aI-1
aI-1
aI-1
asg10
g11
sg12
I4
sba(i__main__
TreeNode
p317
(dp318
g2
(lp319
(i__main__
TreeNode
p320
(dp321
g2
(lp322
I-1
aI-1
aI-1
aI-1
aI-1
asg10
g11
sg12
I1
sba(i__main__
TreeNode
p323
(dp324
g2
(lp325
I-1
aI-1
aI-1
aI-1
aI-1
asg10
g11
sg12
I2
sba(i__main__
TreeNode
p326
(dp327
g2
(lp328
I-1
aI-1
aI-1
aI-1
aI-1
asg10
g88
sg12
I3
sba(i__main__
TreeNode
p329
(dp330
g2
(lp331
I-1
aI-1
aI-1
aI-1
aI-1
asg10
g11
sg12
I4
sba(i__main__
TreeNode
p332
(dp333
g2
(lp334
I-1
aI-1
aI-1
aI-1
aI-1
asg10
g88
sg12
I5
sbasg10
I273
sg12
I5
sbasg10
I84
sg12
I3
sba(i__main__
TreeNode
p335
(dp336
g2
(lp337
(i__main__
TreeNode
p338
(dp339
g2
(lp340
I-1
aI-1
aI-1
aI-1
aI-1
asg10
g11
sg12
I1
sba(i__main__
TreeNode
p341
(dp342
g2
(lp343
(i__main__
TreeNode
p344
(dp345
g2
(lp346
I-1
aI-1
aI-1
aI-1
aI-1
asg10
g11
sg12
I1
sba(i__main__
TreeNode
p347
(dp348
g2
(lp349
I-1
aI-1
aI-1
aI-1
aI-1
asg10
g11
sg12
I2
sba(i__main__
TreeNode
p350
(dp351
g2
(lp352
I-1
aI-1
aI-1
aI-1
aI-1
asg10
g11
sg12
I3
sba(i__main__
TreeNode
p353
(dp354
g2
(lp355
(i__main__
TreeNode
p356
(dp357
g2
(lp358
I-1
aI-1
aI-1
aI-1
aI-1
asg10
g11
sg12
I1
sba(i__main__
TreeNode
p359
(dp360
g2
(lp361
I-1
aI-1
aI-1
aI-1
aI-1
asg10
g88
sg12
I2
sba(i__main__
TreeNode
p362
(dp363
g2
(lp364
I-1
aI-1
aI-1
aI-1
aI-1
asg10
g11
sg12
I3
sba(i__main__
TreeNode
p365
(dp366
g2
(lp367
I-1
aI-1
aI-1
aI-1
aI-1
asg10
g11
sg12
I4
sba(i__main__
TreeNode
p368
(dp369
g2
(lp370
I-1
aI-1
aI-1
aI-1
aI-1
asg10
g11
sg12
I5
sbasg10
I87
sg12
I4
sba(i__main__
TreeNode
p371
(dp372
g2
(lp373
I-1
aI-1
aI-1
aI-1
aI-1
asg10
g11
sg12
I5
sbasg10
I273
sg12
I2
sba(i__main__
TreeNode
p374
(dp375
g2
(lp376
I-1
aI-1
aI-1
aI-1
aI-1
asg10
g11
sg12
I3
sba(i__main__
TreeNode
p377
(dp378
g2
(lp379
I-1
aI-1
aI-1
aI-1
aI-1
asg10
g11
sg12
I4
sba(i__main__
TreeNode
p380
(dp381
g2
(lp382
I-1
aI-1
aI-1
aI-1
aI-1
asg10
g11
sg12
I5
sbasg10
I129
sg12
I4
sba(i__main__
TreeNode
p383
(dp384
g2
(lp385
(i__main__
TreeNode
p386
(dp387
g2
(lp388
I-1
aI-1
aI-1
aI-1
aI-1
asg10
g11
sg12
I1
sba(i__main__
TreeNode
p389
(dp390
g2
(lp391
I-1
aI-1
aI-1
aI-1
aI-1
asg10
g11
sg12
I2
sbaI-1
aI-1
a(i__main__
TreeNode
p392
(dp393
g2
(lp394
I-1
aI-1
aI-1
aI-1
aI-1
asg10
g11
sg12
I5
sbasg10
I270
sg12
I5
sbasg10
I82
sg12
I1
sba(i__main__
TreeNode
p395
(dp396
g2
(lp397
(i__main__
TreeNode
p398
(dp399
g2
(lp400
I-1
aI-1
aI-1
aI-1
aI-1
asg10
g11
sg12
I1
sba(i__main__
TreeNode
p401
(dp402
g2
(lp403
I-1
aI-1
aI-1
aI-1
aI-1
asg10
g11
sg12
I2
sba(i__main__
TreeNode
p404
(dp405
g2
(lp406
I-1
aI-1
aI-1
aI-1
aI-1
asg10
g11
sg12
I3
sba(i__main__
TreeNode
p407
(dp408
g2
(lp409
I-1
aI-1
aI-1
aI-1
aI-1
asg10
g11
sg12
I4
sba(i__main__
TreeNode
p410
(dp411
g2
(lp412
I-1
aI-1
aI-1
aI-1
aI-1
asg10
g11
sg12
I5
sbasg10
I81
sg12
I2
sba(i__main__
TreeNode
p413
(dp414
g2
(lp415
I-1
aI-1
aI-1
aI-1
aI-1
asg10
g11
sg12
I3
sba(i__main__
TreeNode
p416
(dp417
g2
(lp418
I-1
aI-1
aI-1
aI-1
aI-1
asg10
g11
sg12
I4
sba(i__main__
TreeNode
p419
(dp420
g2
(lp421
I-1
aI-1
aI-1
aI-1
aI-1
asg10
g11
sg12
I5
sbasg10
I272
sg12
I1
sba(i__main__
TreeNode
p422
(dp423
g2
(lp424
(i__main__
TreeNode
p425
(dp426
g2
(lp427
(i__main__
TreeNode
p428
(dp429
g2
(lp430
I-1
aI-1
aI-1
aI-1
aI-1
asg10
g11
sg12
I1
sba(i__main__
TreeNode
p431
(dp432
g2
(lp433
I-1
aI-1
aI-1
aI-1
aI-1
asg10
g11
sg12
I2
sba(i__main__
TreeNode
p434
(dp435
g2
(lp436
I-1
aI-1
aI-1
aI-1
aI-1
asg10
g11
sg12
I3
sba(i__main__
TreeNode
p437
(dp438
g2
(lp439
I-1
aI-1
aI-1
aI-1
aI-1
asg10
g11
sg12
I4
sba(i__main__
TreeNode
p440
(dp441
g2
(lp442
I-1
aI-1
aI-1
aI-1
aI-1
asg10
g11
sg12
I5
sbasg10
I81
sg12
I1
sba(i__main__
TreeNode
p443
(dp444
g2
(lp445
I-1
aI-1
aI-1
aI-1
aI-1
asg10
g11
sg12
I2
sba(i__main__
TreeNode
p446
(dp447
g2
(lp448
I-1
a(i__main__
TreeNode
p449
(dp450
g2
(lp451
I-1
aI-1
aI-1
aI-1
aI-1
asg10
g88
sg12
I2
sba(i__main__
TreeNode
p452
(dp453
g2
(lp454
I-1
aI-1
aI-1
aI-1
aI-1
asg10
g11
sg12
I3
sba(i__main__
TreeNode
p455
(dp456
g2
(lp457
I-1
aI-1
aI-1
aI-1
aI-1
asg10
g11
sg12
I4
sbaI-1
asg10
I86
sg12
I3
sba(i__main__
TreeNode
p458
(dp459
g2
(lp460
I-1
aI-1
aI-1
aI-1
aI-1
asg10
g88
sg12
I4
sba(i__main__
TreeNode
p461
(dp462
g2
(lp463
I-1
a(i__main__
TreeNode
p464
(dp465
g2
(lp466
I-1
aI-1
aI-1
aI-1
aI-1
asg10
g88
sg12
I2
sba(i__main__
TreeNode
p467
(dp468
g2
(lp469
I-1
aI-1
aI-1
aI-1
aI-1
asg10
g11
sg12
I3
sba(i__main__
TreeNode
p470
(dp471
g2
(lp472
I-1
aI-1
aI-1
aI-1
aI-1
asg10
g11
sg12
I4
sba(i__main__
TreeNode
p473
(dp474
g2
(lp475
I-1
aI-1
aI-1
aI-1
aI-1
asg10
g88
sg12
I5
sbasg10
I87
sg12
I5
sbasg10
I84
sg12
I2
sba(i__main__
TreeNode
p476
(dp477
g2
(lp478
(i__main__
TreeNode
p479
(dp480
g2
(lp481
I-1
aI-1
aI-1
aI-1
aI-1
asg10
g11
sg12
I1
sba(i__main__
TreeNode
p482
(dp483
g2
(lp484
I-1
aI-1
aI-1
aI-1
aI-1
asg10
g11
sg12
I2
sba(i__main__
TreeNode
p485
(dp486
g2
(lp487
I-1
aI-1
aI-1
aI-1
aI-1
asg10
g11
sg12
I3
sba(i__main__
TreeNode
p488
(dp489
g2
(lp490
I-1
aI-1
aI-1
aI-1
aI-1
asg10
g11
sg12
I4
sba(i__main__
TreeNode
p491
(dp492
g2
(lp493
I-1
aI-1
aI-1
aI-1
aI-1
asg10
g11
sg12
I5
sbasg10
I84
sg12
I3
sba(i__main__
TreeNode
p494
(dp495
g2
(lp496
(i__main__
TreeNode
p497
(dp498
g2
(lp499
I-1
aI-1
aI-1
aI-1
aI-1
asg10
g11
sg12
I1
sba(i__main__
TreeNode
p500
(dp501
g2
(lp502
I-1
aI-1
aI-1
aI-1
aI-1
asg10
g88
sg12
I2
sbaI-1
a(i__main__
TreeNode
p503
(dp504
g2
(lp505
I-1
aI-1
aI-1
aI-1
aI-1
asg10
g11
sg12
I4
sbaI-1
asg10
I84
sg12
I4
sba(i__main__
TreeNode
p506
(dp507
g2
(lp508
(i__main__
TreeNode
p509
(dp510
g2
(lp511
(i__main__
TreeNode
p512
(dp513
g2
(lp514
I-1
aI-1
aI-1
aI-1
aI-1
asg10
g11
sg12
I1
sba(i__main__
TreeNode
p515
(dp516
g2
(lp517
(i__main__
TreeNode
p518
(dp519
g2
(lp520
I-1
aI-1
aI-1
aI-1
aI-1
asg10
g11
sg12
I1
sba(i__main__
TreeNode
p521
(dp522
g2
(lp523
I-1
aI-1
aI-1
aI-1
aI-1
asg10
g11
sg12
I2
sba(i__main__
TreeNode
p524
(dp525
g2
(lp526
I-1
aI-1
aI-1
aI-1
aI-1
asg10
g11
sg12
I3
sba(i__main__
TreeNode
p527
(dp528
g2
(lp529
I-1
aI-1
aI-1
aI-1
aI-1
asg10
g11
sg12
I4
sba(i__main__
TreeNode
p530
(dp531
g2
(lp532
I-1
aI-1
aI-1
aI-1
aI-1
asg10
g11
sg12
I5
sbasg10
I87
sg12
I2
sba(i__main__
TreeNode
p533
(dp534
g2
(lp535
I-1
aI-1
aI-1
aI-1
aI-1
asg10
g11
sg12
I3
sba(i__main__
TreeNode
p536
(dp537
g2
(lp538
(i__main__
TreeNode
p539
(dp540
g2
(lp541
I-1
aI-1
aI-1
aI-1
aI-1
asg10
g11
sg12
I1
sbaI-1
a(i__main__
TreeNode
p542
(dp543
g2
(lp544
I-1
aI-1
aI-1
aI-1
aI-1
asg10
g11
sg12
I3
sba(i__main__
TreeNode
p545
(dp546
g2
(lp547
I-1
aI-1
aI-1
aI-1
aI-1
asg10
g11
sg12
I4
sba(i__main__
TreeNode
p548
(dp549
g2
(lp550
I-1
aI-1
aI-1
aI-1
aI-1
asg10
g11
sg12
I5
sbasg10
I262
sg12
I4
sba(i__main__
TreeNode
p551
(dp552
g2
(lp553
I-1
aI-1
aI-1
aI-1
aI-1
asg10
g11
sg12
I5
sbasg10
I88
sg12
I1
sba(i__main__
TreeNode
p554
(dp555
g2
(lp556
I-1
aI-1
aI-1
aI-1
aI-1
asg10
g11
sg12
I2
sba(i__main__
TreeNode
p557
(dp558
g2
(lp559
I-1
aI-1
aI-1
aI-1
aI-1
asg10
g11
sg12
I3
sba(i__main__
TreeNode
p560
(dp561
g2
(lp562
I-1
aI-1
aI-1
aI-1
aI-1
asg10
g11
sg12
I4
sba(i__main__
TreeNode
p563
(dp564
g2
(lp565
I-1
aI-1
aI-1
aI-1
aI-1
asg10
g11
sg12
I5
sbasg10
I84
sg12
I5
sbasg10
I263
sg12
I1
sba(i__main__
TreeNode
p566
(dp567
g2
(lp568
(i__main__
TreeNode
p569
(dp570
g2
(lp571
(i__main__
TreeNode
p572
(dp573
g2
(lp574
I-1
aI-1
aI-1
aI-1
aI-1
asg10
g11
sg12
I1
sba(i__main__
TreeNode
p575
(dp576
g2
(lp577
I-1
aI-1
aI-1
aI-1
aI-1
asg10
g11
sg12
I2
sba(i__main__
TreeNode
p578
(dp579
g2
(lp580
I-1
aI-1
aI-1
aI-1
aI-1
asg10
g11
sg12
I3
sba(i__main__
TreeNode
p581
(dp582
g2
(lp583
I-1
aI-1
aI-1
aI-1
aI-1
asg10
g11
sg12
I4
sba(i__main__
TreeNode
p584
(dp585
g2
(lp586
(i__main__
TreeNode
p587
(dp588
g2
(lp589
I-1
aI-1
aI-1
aI-1
aI-1
asg10
g11
sg12
I1
sba(i__main__
TreeNode
p590
(dp591
g2
(lp592
I-1
aI-1
aI-1
aI-1
aI-1
asg10
g11
sg12
I2
sba(i__main__
TreeNode
p593
(dp594
g2
(lp595
I-1
aI-1
aI-1
aI-1
aI-1
asg10
g11
sg12
I3
sba(i__main__
TreeNode
p596
(dp597
g2
(lp598
I-1
aI-1
aI-1
aI-1
aI-1
asg10
g11
sg12
I4
sba(i__main__
TreeNode
p599
(dp600
g2
(lp601
I-1
aI-1
aI-1
aI-1
aI-1
asg10
g11
sg12
I5
sbasg10
I273
sg12
I5
sbasg10
I82
sg12
I1
sba(i__main__
TreeNode
p602
(dp603
g2
(lp604
(i__main__
TreeNode
p605
(dp606
g2
(lp607
I-1
aI-1
aI-1
aI-1
aI-1
asg10
g88
sg12
I1
sba(i__main__
TreeNode
p608
(dp609
g2
(lp610
I-1
aI-1
aI-1
aI-1
aI-1
asg10
g11
sg12
I2
sba(i__main__
TreeNode
p611
(dp612
g2
(lp613
I-1
aI-1
aI-1
aI-1
aI-1
asg10
g11
sg12
I3
sba(i__main__
TreeNode
p614
(dp615
g2
(lp616
I-1
aI-1
aI-1
aI-1
aI-1
asg10
g11
sg12
I4
sba(i__main__
TreeNode
p617
(dp618
g2
(lp619
I-1
aI-1
aI-1
aI-1
aI-1
asg10
g11
sg12
I5
sbasg10
I85
sg12
I2
sba(i__main__
TreeNode
p620
(dp621
g2
(lp622
I-1
aI-1
aI-1
aI-1
aI-1
asg10
g11
sg12
I3
sba(i__main__
TreeNode
p623
(dp624
g2
(lp625
I-1
aI-1
aI-1
aI-1
aI-1
asg10
g11
sg12
I4
sba(i__main__
TreeNode
p626
(dp627
g2
(lp628
I-1
aI-1
aI-1
aI-1
aI-1
asg10
g11
sg12
I5
sbasg10
I272
sg12
I2
sba(i__main__
TreeNode
p629
(dp630
g2
(lp631
(i__main__
TreeNode
p632
(dp633
g2
(lp634
(i__main__
TreeNode
p635
(dp636
g2
(lp637
I-1
aI-1
aI-1
aI-1
aI-1
asg10
g11
sg12
I1
sba(i__main__
TreeNode
p638
(dp639
g2
(lp640
I-1
aI-1
aI-1
aI-1
aI-1
asg10
g11
sg12
I2
sba(i__main__
TreeNode
p641
(dp642
g2
(lp643
I-1
aI-1
aI-1
aI-1
aI-1
asg10
g11
sg12
I3
sba(i__main__
TreeNode
p644
(dp645
g2
(lp646
I-1
aI-1
aI-1
aI-1
aI-1
asg10
g11
sg12
I4
sba(i__main__
TreeNode
p647
(dp648
g2
(lp649
I-1
aI-1
aI-1
aI-1
aI-1
asg10
g11
sg12
I5
sbasg10
I84
sg12
I1
sba(i__main__
TreeNode
p650
(dp651
g2
(lp652
I-1
aI-1
aI-1
aI-1
aI-1
asg10
g11
sg12
I2
sba(i__main__
TreeNode
p653
(dp654
g2
(lp655
I-1
aI-1
aI-1
aI-1
aI-1
asg10
g11
sg12
I3
sba(i__main__
TreeNode
p656
(dp657
g2
(lp658
I-1
aI-1
aI-1
aI-1
aI-1
asg10
g11
sg12
I4
sba(i__main__
TreeNode
p659
(dp660
g2
(lp661
I-1
aI-1
aI-1
aI-1
aI-1
asg10
g11
sg12
I5
sbasg10
I272
sg12
I3
sba(i__main__
TreeNode
p662
(dp663
g2
(lp664
(i__main__
TreeNode
p665
(dp666
g2
(lp667
I-1
aI-1
aI-1
aI-1
aI-1
asg10
g11
sg12
I1
sba(i__main__
TreeNode
p668
(dp669
g2
(lp670
I-1
aI-1
aI-1
aI-1
aI-1
asg10
g11
sg12
I2
sba(i__main__
TreeNode
p671
(dp672
g2
(lp673
I-1
aI-1
aI-1
aI-1
aI-1
asg10
g11
sg12
I3
sba(i__main__
TreeNode
p674
(dp675
g2
(lp676
I-1
aI-1
aI-1
aI-1
aI-1
asg10
g11
sg12
I4
sba(i__main__
TreeNode
p677
(dp678
g2
(lp679
I-1
aI-1
aI-1
aI-1
aI-1
asg10
g11
sg12
I5
sbasg10
I272
sg12
I4
sba(i__main__
TreeNode
p680
(dp681
g2
(lp682
I-1
aI-1
aI-1
aI-1
aI-1
asg10
g11
sg12
I5
sbasg10
I268
sg12
I3
sba(i__main__
TreeNode
p683
(dp684
g2
(lp685
(i__main__
TreeNode
p686
(dp687
g2
(lp688
(i__main__
TreeNode
p689
(dp690
g2
(lp691
(i__main__
TreeNode
p692
(dp693
g2
(lp694
(i__main__
TreeNode
p695
(dp696
g2
(lp697
I-1
aI-1
aI-1
aI-1
aI-1
asg10
g11
sg12
I1
sba(i__main__
TreeNode
p698
(dp699
g2
(lp700
I-1
aI-1
aI-1
aI-1
aI-1
asg10
g11
sg12
I2
sba(i__main__
TreeNode
p701
(dp702
g2
(lp703
(i__main__
TreeNode
p704
(dp705
g2
(lp706
I-1
aI-1
aI-1
aI-1
aI-1
asg10
g11
sg12
I1
sbaI-1
a(i__main__
TreeNode
p707
(dp708
g2
(lp709
I-1
aI-1
aI-1
aI-1
aI-1
asg10
g11
sg12
I3
sba(i__main__
TreeNode
p710
(dp711
g2
(lp712
I-1
aI-1
aI-1
aI-1
aI-1
asg10
g11
sg12
I4
sba(i__main__
TreeNode
p713
(dp714
g2
(lp715
I-1
aI-1
aI-1
aI-1
aI-1
asg10
g88
sg12
I5
sbasg10
I140
sg12
I3
sba(i__main__
TreeNode
p716
(dp717
g2
(lp718
I-1
aI-1
aI-1
aI-1
aI-1
asg10
g11
sg12
I4
sba(i__main__
TreeNode
p719
(dp720
g2
(lp721
I-1
aI-1
aI-1
aI-1
aI-1
asg10
g11
sg12
I5
sbasg10
I123
sg12
I1
sba(i__main__
TreeNode
p722
(dp723
g2
(lp724
I-1
aI-1
aI-1
aI-1
aI-1
asg10
g11
sg12
I2
sba(i__main__
TreeNode
p725
(dp726
g2
(lp727
I-1
aI-1
aI-1
aI-1
aI-1
asg10
g11
sg12
I3
sba(i__main__
TreeNode
p728
(dp729
g2
(lp730
I-1
aI-1
aI-1
aI-1
aI-1
asg10
g11
sg12
I4
sba(i__main__
TreeNode
p731
(dp732
g2
(lp733
I-1
aI-1
aI-1
aI-1
aI-1
asg10
g88
sg12
I5
sbasg10
I186
sg12
I1
sba(i__main__
TreeNode
p734
(dp735
g2
(lp736
I-1
aI-1
aI-1
aI-1
aI-1
asg10
g11
sg12
I2
sba(i__main__
TreeNode
p737
(dp738
g2
(lp739
I-1
aI-1
aI-1
aI-1
aI-1
asg10
g11
sg12
I3
sba(i__main__
TreeNode
p740
(dp741
g2
(lp742
(i__main__
TreeNode
p743
(dp744
g2
(lp745
I-1
aI-1
aI-1
aI-1
aI-1
asg10
g11
sg12
I1
sba(i__main__
TreeNode
p746
(dp747
g2
(lp748
I-1
aI-1
aI-1
aI-1
aI-1
asg10
g11
sg12
I2
sbaI-1
a(i__main__
TreeNode
p749
(dp750
g2
(lp751
I-1
aI-1
aI-1
aI-1
aI-1
asg10
g88
sg12
I4
sba(i__main__
TreeNode
p752
(dp753
g2
(lp754
I-1
aI-1
aI-1
aI-1
aI-1
asg10
g11
sg12
I5
sbasg10
I266
sg12
I4
sba(i__main__
TreeNode
p755
(dp756
g2
(lp757
(i__main__
TreeNode
p758
(dp759
g2
(lp760
I-1
aI-1
aI-1
aI-1
aI-1
asg10
g11
sg12
I1
sba(i__main__
TreeNode
p761
(dp762
g2
(lp763
I-1
aI-1
aI-1
aI-1
aI-1
asg10
g11
sg12
I2
sba(i__main__
TreeNode
p764
(dp765
g2
(lp766
I-1
aI-1
aI-1
aI-1
aI-1
asg10
g11
sg12
I3
sba(i__main__
TreeNode
p767
(dp768
g2
(lp769
I-1
aI-1
aI-1
aI-1
aI-1
asg10
g11
sg12
I4
sba(i__main__
TreeNode
p770
(dp771
g2
(lp772
I-1
aI-1
aI-1
aI-1
aI-1
asg10
g88
sg12
I5
sbasg10
I272
sg12
I5
sbasg10
I271
sg12
I1
sba(i__main__
TreeNode
p773
(dp774
g2
(lp775
I-1
aI-1
aI-1
aI-1
aI-1
asg10
g11
sg12
I2
sba(i__main__
TreeNode
p776
(dp777
g2
(lp778
I-1
aI-1
aI-1
aI-1
aI-1
asg10
g11
sg12
I3
sba(i__main__
TreeNode
p779
(dp780
g2
(lp781
I-1
aI-1
aI-1
aI-1
aI-1
asg10
g88
sg12
I4
sba(i__main__
TreeNode
p782
(dp783
g2
(lp784
I-1
aI-1
aI-1
aI-1
aI-1
asg10
g88
sg12
I5
sbasg10
I80
sg12
I4
sba(i__main__
TreeNode
p785
(dp786
g2
(lp787
(i__main__
TreeNode
p788
(dp789
g2
(lp790
I-1
aI-1
aI-1
aI-1
aI-1
asg10
g11
sg12
I1
sba(i__main__
TreeNode
p791
(dp792
g2
(lp793
I-1
aI-1
aI-1
aI-1
aI-1
asg10
g11
sg12
I2
sba(i__main__
TreeNode
p794
(dp795
g2
(lp796
I-1
aI-1
aI-1
aI-1
aI-1
asg10
g88
sg12
I3
sba(i__main__
TreeNode
p797
(dp798
g2
(lp799
I-1
aI-1
aI-1
aI-1
aI-1
asg10
g11
sg12
I4
sba(i__main__
TreeNode
p800
(dp801
g2
(lp802
I-1
aI-1
aI-1
aI-1
aI-1
asg10
g11
sg12
I5
sbasg10
I271
sg12
I5
sbasg10
I89
sg12
Nsb.